target datalayout = "e-m:e-p270:32:32-p271:32:32-p272:64:64-i64:64-i128:128-f80:128-n8:16:32:64-S128"
target triple = "x86_64-pc-linux-gnu"

; Function Attrs: mustprogress nounwind uwtable
define noundef ptr @_ZN6google8protobuf21FastInt32ToBufferLeftEiPc(i32 noundef %0, ptr noundef %1) #6 {
  %3 = alloca i32, align 4
  %4 = alloca ptr, align 8
  %5 = alloca i32, align 4
  store i32 %0, ptr %3, align 4, !tbaa !15
  store ptr %1, ptr %4, align 8, !tbaa !8
  call void @llvm.lifetime.start.p0(i64 4, ptr %5) #3
  store i32 0, ptr %5, align 4, !tbaa !15
  %6 = load i32, ptr %3, align 4, !tbaa !15
  %7 = icmp slt i32 %6, 0
  br i1 %7, label %8, label %14

8:                                                ; preds = %2
  %9 = load ptr, ptr %4, align 8, !tbaa !8
  %10 = getelementptr inbounds nuw i8, ptr %9, i32 1
  store ptr %10, ptr %4, align 8, !tbaa !8
  store i8 45, ptr %9, align 1, !tbaa !10
  %11 = load i32, ptr %3, align 4, !tbaa !15
  %12 = load i32, ptr %5, align 4, !tbaa !15
  %13 = sub i32 %12, %11
  store i32 %13, ptr %5, align 4, !tbaa !15
  br label %16

14:                                               ; preds = %2
  %15 = load i32, ptr %3, align 4, !tbaa !15
  store i32 %15, ptr %5, align 4, !tbaa !15
  br label %16

16:                                               ; preds = %14, %8
  %17 = load i32, ptr %5, align 4, !tbaa !15
  %18 = load ptr, ptr %4, align 8, !tbaa !8
  %19 = call noundef ptr @_ZN6google8protobuf22FastUInt32ToBufferLeftEjPc(i32 noundef %17, ptr noundef %18)
  call void @llvm.lifetime.end.p0(i64 4, ptr %5) #3
  ret ptr %19
}