; Function Attrs: mustprogress nofree norecurse nosync nounwind willreturn memory(write, inaccessiblemem: none) uwtable
define noundef nonnull ptr @_ZN6google8protobuf21FastInt32ToBufferLeftEiPc(i32 noundef %0, ptr noundef %1) local_unnamed_addr #17 {
  %3 = icmp slt i32 %0, 0
  br i1 %3, label %4, label %7

4:                                                ; preds = %2
  %5 = getelementptr inbounds nuw i8, ptr %1, i64 1
  store i8 45, ptr %1, align 1, !tbaa !11
  %6 = sub i32 0, %0
  br label %7

7:                                                ; preds = %2, %4
  %.06 = phi ptr [ %5, %4 ], [ %1, %2 ]
  %.0 = phi i32 [ %6, %4 ], [ %0, %2 ]
  %8 = tail call noundef ptr @_ZN6google8protobuf22FastUInt32ToBufferLeftEjPc(i32 noundef %.0, ptr noundef %.06)
  ret ptr %8
}